target datalayout = "e-m:e-p270:32:32-p271:32:32-p272:64:64-i64:64-i128:128-f80:128-n8:16:32:64-S128"
target triple = "x86_64-pc-linux-gnu"

%struct.BEValue = type { i8, i32, ptr, ptr, ptr }
%struct.GenContext_ = type { i8, ptr, ptr, ptr, ptr, ptr, ptr, ptr, ptr, ptr, ptr, ptr, ptr, ptr, ptr, ptr, ptr, ptr, ptr, ptr, ptr, ptr, ptr, ptr, ptr, ptr, ptr, ptr, ptr, ptr, ptr, ptr, ptr, %struct.anon.85, i32, i32, %struct.DebugContext, ptr, ptr, ptr, %struct.BEValue, i8, %union.SourceSpan, ptr, ptr, ptr, ptr }
%struct.anon.85 = type { ptr, ptr, ptr }
%struct.DebugContext = type { i16, ptr, ptr, %struct.DebugFile_, ptr, ptr, ptr, ptr }
%struct.DebugFile_ = type { i16, ptr }
%union.SourceSpan = type { i64 }
%struct.Type_ = type { i32, ptr, ptr, ptr, %union.anon.97, ptr, ptr, %union.anon.99 }
%union.anon.97 = type { ptr }
%union.anon.99 = type { %struct.TypeFunction }
%struct.TypeFunction = type { ptr, ptr, ptr }

@.str.3 = private unnamed_addr constant [1 x i8] zeroinitializer, align 1
@type_usz = external global ptr, align 8
@type_voidptr = external global ptr, align 8
@.str.65 = private unnamed_addr constant [7 x i8] c"ptradd\00", align 1
@.str.66 = private unnamed_addr constant [10 x i8] c"ptroffset\00", align 1

; Function Attrs: nounwind uwtable
define dso_local ptr @llvm_emit_ptradd_inbounds_raw(ptr noundef %0, ptr noundef %1, ptr noundef %2, i64 noundef %3) #0 {
  %5 = alloca ptr, align 8
  %6 = alloca ptr, align 8
  %7 = alloca ptr, align 8
  %8 = alloca ptr, align 8
  %9 = alloca i64, align 8
  store ptr %0, ptr %6, align 8
  store ptr %1, ptr %7, align 8
  store ptr %2, ptr %8, align 8
  store i64 %3, ptr %9, align 8
  %10 = load ptr, ptr %8, align 8
  %11 = call i32 @LLVMIsConstant(ptr noundef %10)
  %12 = icmp ne i32 %11, 0
  br i1 %12, label %13, label %19

13:                                               ; preds = %4
  %14 = load ptr, ptr %8, align 8
  %15 = call i32 @LLVMIsNull(ptr noundef %14)
  %16 = icmp ne i32 %15, 0
  br i1 %16, label %17, label %19

17:                                               ; preds = %13
  %18 = load ptr, ptr %7, align 8
  store ptr %18, ptr %5, align 8
  br label %43

19:                                               ; preds = %13, %4
  %20 = load i64, ptr %9, align 8
  %21 = icmp eq i64 %20, 1
  br i1 %21, label %22, label %31

22:                                               ; preds = %19
  %23 = load ptr, ptr %6, align 8
  %24 = getelementptr inbounds %struct.GenContext_, ptr %23, i32 0, i32 8
  %25 = load ptr, ptr %24, align 8
  %26 = load ptr, ptr %6, align 8
  %27 = getelementptr inbounds %struct.GenContext_, ptr %26, i32 0, i32 21
  %28 = load ptr, ptr %27, align 8
  %29 = load ptr, ptr %7, align 8
  %30 = call ptr @LLVMBuildInBoundsGEP2(ptr noundef %25, ptr noundef %28, ptr noundef %29, ptr noundef %8, i32 noundef 1, ptr noundef @.str.65)
  store ptr %30, ptr %5, align 8
  br label %43

31:                                               ; preds = %19
  %32 = load ptr, ptr %6, align 8
  %33 = getelementptr inbounds %struct.GenContext_, ptr %32, i32 0, i32 8
  %34 = load ptr, ptr %33, align 8
  %35 = load ptr, ptr %6, align 8
  %36 = getelementptr inbounds %struct.GenContext_, ptr %35, i32 0, i32 21
  %37 = load ptr, ptr %36, align 8
  %38 = load i64, ptr %9, align 8
  %39 = trunc i64 %38 to i32
  %40 = call ptr @LLVMArrayType(ptr noundef %37, i32 noundef %39)
  %41 = load ptr, ptr %7, align 8
  %42 = call ptr @LLVMBuildInBoundsGEP2(ptr noundef %34, ptr noundef %40, ptr noundef %41, ptr noundef %8, i32 noundef 1, ptr noundef @.str.66)
  store ptr %42, ptr %5, align 8
  br label %43

43:                                               ; preds = %31, %22, %17
  %44 = load ptr, ptr %5, align 8
  ret ptr %44
}

; Function Attrs: nounwind uwtable
define dso_local ptr @llvm_emit_const_ptradd_inbounds_raw(ptr noundef %0, ptr noundef %1, i64 noundef %2) #0 {
  %4 = alloca ptr, align 8
  %5 = alloca ptr, align 8
  %6 = alloca i64, align 8
  store ptr %0, ptr %4, align 8
  store ptr %1, ptr %5, align 8
  store i64 %2, ptr %6, align 8
  %7 = load ptr, ptr %4, align 8
  %8 = load ptr, ptr %5, align 8
  %9 = load ptr, ptr %4, align 8
  %10 = getelementptr inbounds %struct.GenContext_, ptr %9, i32 0, i32 24
  %11 = load ptr, ptr %10, align 8
  %12 = load i64, ptr %6, align 8
  %13 = call ptr @LLVMConstInt(ptr noundef %11, i64 noundef %12, i32 noundef 0)
  %14 = call ptr @llvm_emit_ptradd_inbounds_raw(ptr noundef %7, ptr noundef %8, ptr noundef %13, i64 noundef 1)
  ret ptr %14
}

; Function Attrs: nounwind uwtable
define dso_local ptr @llvm_emit_struct_gep_raw(ptr noundef %0, ptr noundef %1, ptr noundef %2, i32 noundef %3, i32 noundef %4, ptr noundef %5) #0 {
  %7 = alloca i32, align 4
  %8 = alloca i32, align 4
  %9 = alloca ptr, align 8
  %10 = alloca ptr, align 8
  %11 = alloca ptr, align 8
  %12 = alloca ptr, align 8
  %13 = alloca i32, align 4
  %14 = alloca i32, align 4
  %15 = alloca ptr, align 8
  %16 = alloca i64, align 8
  store ptr %0, ptr %10, align 8
  store ptr %1, ptr %11, align 8
  store ptr %2, ptr %12, align 8
  store i32 %3, ptr %13, align 4
  store i32 %4, ptr %14, align 4
  store ptr %5, ptr %15, align 8
  %17 = load ptr, ptr %10, align 8
  %18 = getelementptr inbounds %struct.GenContext_, ptr %17, i32 0, i32 4
  %19 = load ptr, ptr %18, align 8
  %20 = load ptr, ptr %12, align 8
  %21 = load i32, ptr %13, align 4
  %22 = call i64 @LLVMOffsetOfElement(ptr noundef %19, ptr noundef %20, i32 noundef %21)
  %23 = trunc i64 %22 to i32
  %24 = load i32, ptr %14, align 4
  store i32 %23, ptr %7, align 4
  store i32 %24, ptr %8, align 4
  %25 = load i32, ptr %7, align 4
  %26 = load i32, ptr %8, align 4
  %27 = or i32 %25, %26
  %28 = load i32, ptr %7, align 4
  %29 = load i32, ptr %8, align 4
  %30 = or i32 %28, %29
  %31 = xor i32 %30, -1
  %32 = add i32 1, %31
  %33 = and i32 %27, %32
  %34 = load ptr, ptr %15, align 8
  store i32 %33, ptr %34, align 4
  %35 = load i32, ptr %13, align 4
  %36 = icmp ne i32 %35, 0
  br i1 %36, label %39, label %37

37:                                               ; preds = %6
  %38 = load ptr, ptr %11, align 8
  store ptr %38, ptr %9, align 8
  br label %50

39:                                               ; preds = %6
  %40 = load ptr, ptr %10, align 8
  %41 = getelementptr inbounds %struct.GenContext_, ptr %40, i32 0, i32 4
  %42 = load ptr, ptr %41, align 8
  %43 = load ptr, ptr %12, align 8
  %44 = load i32, ptr %13, align 4
  %45 = call i64 @LLVMOffsetOfElement(ptr noundef %42, ptr noundef %43, i32 noundef %44)
  store i64 %45, ptr %16, align 8
  %46 = load ptr, ptr %10, align 8
  %47 = load ptr, ptr %11, align 8
  %48 = load i64, ptr %16, align 8
  %49 = call ptr @llvm_emit_const_ptradd_inbounds_raw(ptr noundef %46, ptr noundef %47, i64 noundef %48)
  store ptr %49, ptr %9, align 8
  br label %50

50:                                               ; preds = %39, %37
  %51 = load ptr, ptr %9, align 8
  ret ptr %51
}

; Function Attrs: nounwind uwtable
define internal void @llvm_emit_any_pointer(ptr noundef %0, ptr noundef %1, ptr noundef %2) #0 {
  %4 = alloca ptr, align 8
  %5 = alloca i32, align 4
  %6 = alloca ptr, align 8
  %7 = alloca ptr, align 8
  %8 = alloca i64, align 8
  %9 = alloca ptr, align 8
  %10 = alloca ptr, align 8
  %11 = alloca ptr, align 8
  %12 = alloca i32, align 4
  %13 = alloca ptr, align 8
  %14 = alloca ptr, align 8
  %15 = alloca ptr, align 8
  %16 = alloca i32, align 4
  %17 = alloca ptr, align 8
  %18 = alloca ptr, align 8
  store ptr %0, ptr %13, align 8
  store ptr %1, ptr %14, align 8
  store ptr %2, ptr %15, align 8
  %19 = load ptr, ptr %13, align 8
  %20 = load ptr, ptr %14, align 8
  call void @llvm_value_fold_optional(ptr noundef %19, ptr noundef %20)
  %21 = load ptr, ptr %14, align 8
  %22 = load i8, ptr %21, align 8
  %23 = and i8 %22, 31
  %24 = zext i8 %23 to i32
  %25 = icmp eq i32 %24, 1
  br i1 %25, label %26, label %44

26:                                               ; preds = %3
  %27 = load ptr, ptr %13, align 8
  %28 = load ptr, ptr %14, align 8
  %29 = getelementptr inbounds %struct.BEValue, ptr %28, i32 0, i32 3
  %30 = load ptr, ptr %29, align 8
  %31 = load ptr, ptr %13, align 8
  %32 = load ptr, ptr %14, align 8
  %33 = getelementptr inbounds %struct.BEValue, ptr %32, i32 0, i32 2
  %34 = load ptr, ptr %33, align 8
  %35 = call ptr @llvm_get_type(ptr noundef %31, ptr noundef %34)
  %36 = load ptr, ptr %14, align 8
  %37 = getelementptr inbounds %struct.BEValue, ptr %36, i32 0, i32 1
  %38 = load i32, ptr %37, align 4
  %39 = call ptr @llvm_emit_struct_gep_raw(ptr noundef %27, ptr noundef %30, ptr noundef %35, i32 noundef 0, i32 noundef %38, ptr noundef %16)
  store ptr %39, ptr %17, align 8
  %40 = load ptr, ptr %15, align 8
  %41 = load ptr, ptr %17, align 8
  %42 = load ptr, ptr @type_voidptr, align 8
  %43 = load i32, ptr %16, align 4
  call void @llvm_value_set_address(ptr noundef %40, ptr noundef %41, ptr noundef %42, i32 noundef %43)
  br label %101

44:                                               ; preds = %3
  %45 = load ptr, ptr %13, align 8
  %46 = load ptr, ptr %14, align 8
  %47 = getelementptr inbounds %struct.BEValue, ptr %46, i32 0, i32 3
  %48 = load ptr, ptr %47, align 8
  store ptr %45, ptr %10, align 8
  store ptr %48, ptr %11, align 8
  store i32 0, ptr %12, align 4
  %49 = load ptr, ptr %11, align 8
  %50 = call ptr @LLVMTypeOf(ptr noundef %49) #8
  %51 = call i32 @LLVMGetTypeKind(ptr noundef %50) #8
  %52 = icmp eq i32 %51, 13
  br i1 %52, label %53, label %89

53:                                               ; preds = %44
  %54 = load ptr, ptr %10, align 8
  %55 = getelementptr inbounds %struct.GenContext_, ptr %54, i32 0, i32 8
  %56 = load ptr, ptr %55, align 8
  %57 = load ptr, ptr %11, align 8
  %58 = load ptr, ptr %10, align 8
  %59 = load ptr, ptr @type_usz, align 8
  %60 = load i32, ptr %12, align 4
  %61 = zext i32 %60 to i64
  store ptr %58, ptr %6, align 8
  store ptr %59, ptr %7, align 8
  store i64 %61, ptr %8, align 8
  %62 = load ptr, ptr %7, align 8
  %63 = call ptr @type_lowering(ptr noundef %62)
  store ptr %63, ptr %7, align 8
  %64 = load ptr, ptr %6, align 8
  %65 = load ptr, ptr %7, align 8
  %66 = call ptr @llvm_get_type(ptr noundef %64, ptr noundef %65) #8
  %67 = load i64, ptr %8, align 8
  %68 = load ptr, ptr %7, align 8
  store ptr %68, ptr %4, align 8
  %69 = load ptr, ptr %4, align 8
  %70 = load i32, ptr %69, align 8
  store i32 %70, ptr %5, align 4
  %71 = load i32, ptr %5, align 4
  %72 = icmp eq i32 %71, 31
  br i1 %72, label %73, label %78

73:                                               ; preds = %53
  %74 = load ptr, ptr %4, align 8
  %75 = getelementptr inbounds %struct.Type_, ptr %74, i32 0, i32 1
  %76 = load ptr, ptr %75, align 8
  %77 = load i32, ptr %76, align 8
  store i32 %77, ptr %5, align 4
  br label %78

78:                                               ; preds = %73, %53
  %79 = load i32, ptr %5, align 4
  %80 = icmp uge i32 %79, 3
  br i1 %80, label %81, label %84

81:                                               ; preds = %78
  %82 = load i32, ptr %5, align 4
  %83 = icmp ule i32 %82, 7
  br label %84

84:                                               ; preds = %81, %78
  %85 = phi i1 [ false, %78 ], [ %83, %81 ]
  %86 = zext i1 %85 to i32
  %87 = call ptr @LLVMConstInt(ptr noundef %66, i64 noundef %67, i32 noundef %86) #8
  %88 = call ptr @LLVMBuildExtractElement(ptr noundef %56, ptr noundef %57, ptr noundef %87, ptr noundef @.str.3) #8
  store ptr %88, ptr %9, align 8
  br label %96

89:                                               ; preds = %44
  %90 = load ptr, ptr %10, align 8
  %91 = getelementptr inbounds %struct.GenContext_, ptr %90, i32 0, i32 8
  %92 = load ptr, ptr %91, align 8
  %93 = load ptr, ptr %11, align 8
  %94 = load i32, ptr %12, align 4
  %95 = call ptr @LLVMBuildExtractValue(ptr noundef %92, ptr noundef %93, i32 noundef %94, ptr noundef @.str.3) #8
  store ptr %95, ptr %9, align 8
  br label %96

96:                                               ; preds = %89, %84
  %97 = load ptr, ptr %9, align 8
  store ptr %97, ptr %18, align 8
  %98 = load ptr, ptr %15, align 8
  %99 = load ptr, ptr %18, align 8
  %100 = load ptr, ptr @type_voidptr, align 8
  call void @llvm_value_set(ptr noundef %98, ptr noundef %99, ptr noundef %100)
  br label %101

101:                                              ; preds = %96, %26
  ret void
}