; Function Attrs: nounwind uwtable
define internal fastcc void @llvm_emit_any_pointer(ptr noundef %0, ptr noundef %1, ptr noundef %2) unnamed_addr #0 {
  tail call void @llvm_value_fold_optional(ptr noundef %0, ptr noundef %1) #10
  %4 = load i8, ptr %1, align 8
  %5 = and i8 %4, 31
  %6 = icmp eq i8 %5, 1
  %7 = getelementptr inbounds i8, ptr %1, i64 16
  %8 = load ptr, ptr %7, align 8
  br i1 %6, label %9, label %23

9:                                                ; preds = %3
  %10 = getelementptr inbounds i8, ptr %1, i64 8
  %11 = load ptr, ptr %10, align 8
  %12 = tail call ptr @llvm_get_type(ptr noundef %0, ptr noundef %11) #10
  %13 = getelementptr inbounds i8, ptr %1, i64 4
  %14 = load i32, ptr %13, align 4
  %15 = getelementptr inbounds i8, ptr %0, i64 32
  %16 = load ptr, ptr %15, align 8
  %17 = tail call i64 @LLVMOffsetOfElement(ptr noundef %16, ptr noundef %12, i32 noundef 0) #10
  %18 = trunc i64 %17 to i32
  %19 = or i32 %14, %18
  %20 = sub i32 0, %19
  %21 = and i32 %19, %20
  %22 = load ptr, ptr @type_voidptr, align 8
  tail call void @llvm_value_set_address(ptr noundef %2, ptr noundef %8, ptr noundef %22, i32 noundef %21) #10
  br label %49

23:                                               ; preds = %3
  %24 = tail call ptr @LLVMTypeOf(ptr noundef %8) #10
  %25 = tail call i32 @LLVMGetTypeKind(ptr noundef %24) #10
  %26 = icmp eq i32 %25, 13
  %27 = getelementptr inbounds i8, ptr %0, i64 64
  %28 = load ptr, ptr %27, align 8
  br i1 %26, label %29, label %45

29:                                               ; preds = %23
  %30 = load ptr, ptr @type_usz, align 8
  %31 = tail call fastcc ptr @type_lowering(ptr noundef %30)
  %32 = tail call ptr @llvm_get_type(ptr noundef %0, ptr noundef %31) #10
  %33 = load i32, ptr %31, align 8
  %34 = icmp eq i32 %33, 31
  br i1 %34, label %35, label %39

35:                                               ; preds = %29
  %36 = getelementptr inbounds i8, ptr %31, i64 8
  %37 = load ptr, ptr %36, align 8
  %38 = load i32, ptr %37, align 8
  br label %39

39:                                               ; preds = %35, %29
  %.0 = phi i32 [ %38, %35 ], [ %33, %29 ]
  %40 = add i32 %.0, -3
  %41 = icmp ult i32 %40, 5
  %42 = zext i1 %41 to i32
  %43 = tail call ptr @LLVMConstInt(ptr noundef %32, i64 noundef 0, i32 noundef %42) #10
  %44 = tail call ptr @LLVMBuildExtractElement(ptr noundef %28, ptr noundef %8, ptr noundef %43, ptr noundef nonnull @.str.3) #10
  br label %47

45:                                               ; preds = %23
  %46 = tail call ptr @LLVMBuildExtractValue(ptr noundef %28, ptr noundef %8, i32 noundef 0, ptr noundef nonnull @.str.3) #10
  br label %47

47:                                               ; preds = %45, %39
  %.032 = phi ptr [ %44, %39 ], [ %46, %45 ]
  %48 = load ptr, ptr @type_voidptr, align 8
  tail call void @llvm_value_set(ptr noundef %2, ptr noundef %.032, ptr noundef %48) #10
  br label %49

49:                                               ; preds = %47, %9
  ret void
}